; Function Attrs: nounwind uwtable
define internal range(i32 0, 2) i32 @test_cmp_create_pollreq() #0 {
  %1 = tail call fastcc ptr @set_up(ptr noundef nonnull @.str.38)
  %2 = icmp eq ptr %1, null
  br i1 %2, label %23, label %3

3:                                                ; preds = %0
  %4 = getelementptr inbounds nuw i8, ptr %1, i64 40
  store i32 1, ptr %4, align 8, !tbaa !24
  %5 = getelementptr inbounds nuw i8, ptr %1, i64 8
  %6 = load ptr, ptr %5, align 8, !tbaa !25
  %7 = tail call ptr @ossl_cmp_pollReq_new(ptr noundef %6, i32 noundef 4711) #4
  %8 = tail call i32 @test_ptr(ptr noundef nonnull @.str.14, i32 noundef 121, ptr noundef nonnull @.str.66, ptr noundef %7) #4
  %.not5.i = icmp eq i32 %8, 0
  br i1 %.not5.i, label %execute_pollreq_create_test.exit, label %9

9:                                                ; preds = %3
  %10 = tail call i32 @valid_asn1_encoding(ptr noundef %7) #4
  %11 = icmp ne i32 %10, 0
  %12 = zext i1 %11 to i32
  %13 = tail call i32 @test_true(ptr noundef nonnull @.str.14, i32 noundef 121, ptr noundef nonnull @.str.51, i32 noundef %12) #4
  %14 = icmp ne i32 %13, 0
  %15 = zext i1 %14 to i32
  br label %execute_pollreq_create_test.exit

execute_pollreq_create_test.exit:                 ; preds = %3, %9
  %16 = phi i32 [ %15, %9 ], [ 0, %3 ]
  tail call void @OSSL_CMP_MSG_free(ptr noundef %7) #4
  %17 = load ptr, ptr @stderr, align 8, !tbaa !28
  tail call void @ERR_print_errors_fp(ptr noundef %17) #4
  %18 = load ptr, ptr %5, align 8, !tbaa !25
  tail call void @OSSL_CMP_CTX_free(ptr noundef %18) #4
  %19 = getelementptr inbounds nuw i8, ptr %1, i64 32
  %20 = load ptr, ptr %19, align 8, !tbaa !26
  tail call void @OSSL_CMP_MSG_free(ptr noundef %20) #4
  %21 = getelementptr inbounds nuw i8, ptr %1, i64 48
  %22 = load ptr, ptr %21, align 8, !tbaa !27
  tail call void @OSSL_CMP_PKISI_free(ptr noundef %22) #4
  tail call void @CRYPTO_free(ptr noundef nonnull %1, ptr noundef nonnull @.str.14, i32 noundef 43) #4
  br label %23

23:                                               ; preds = %0, %execute_pollreq_create_test.exit
  %.06 = phi i32 [ %16, %execute_pollreq_create_test.exit ], [ 0, %0 ]
  ret i32 %.06
}